target datalayout = "e-m:e-p270:32:32-p271:32:32-p272:64:64-i64:64-i128:128-f80:128-n8:16:32:64-S128"
target triple = "x86_64-pc-linux-gnu"

@stderr = external global ptr, align 8
@.str.5 = private unnamed_addr constant [65 x i8] c"ucm error: byte must be formatted as \\xXX (2 hex digits) - \22%s\22\0A\00", align 1
@.str.6 = private unnamed_addr constant [35 x i8] c"ucm error: too many bytes on \22%s\22\0A\00", align 1

; Function Attrs: mustprogress nounwind uwtable
define signext i8 @ucm_parseBytes(ptr noundef %0, ptr noundef %1, ptr noundef %2) #8 {
  %4 = alloca i8, align 1
  %5 = alloca ptr, align 8
  %6 = alloca ptr, align 8
  %7 = alloca ptr, align 8
  %8 = alloca ptr, align 8
  %9 = alloca ptr, align 8
  %10 = alloca i8, align 1
  %11 = alloca i8, align 1
  %12 = alloca i32, align 4
  store ptr %0, ptr %5, align 8, !tbaa !24
  store ptr %1, ptr %6, align 8, !tbaa !24
  store ptr %2, ptr %7, align 8, !tbaa !71
  call void @llvm.lifetime.start.p0(i64 8, ptr %8) #12
  %13 = load ptr, ptr %7, align 8, !tbaa !71
  %14 = load ptr, ptr %13, align 8, !tbaa !24
  store ptr %14, ptr %8, align 8, !tbaa !24
  call void @llvm.lifetime.start.p0(i64 8, ptr %9) #12
  call void @llvm.lifetime.start.p0(i64 1, ptr %10) #12
  call void @llvm.lifetime.start.p0(i64 1, ptr %11) #12
  store i8 0, ptr %11, align 1, !tbaa !22
  br label %15

15:                                               ; preds = %60, %3
  %16 = load i8, ptr %11, align 1, !tbaa !22
  %17 = sext i8 %16 to i32
  %18 = icmp sgt i32 %17, 0
  br i1 %18, label %19, label %27

19:                                               ; preds = %15
  %20 = load ptr, ptr %8, align 8, !tbaa !24
  %21 = load i8, ptr %20, align 1, !tbaa !22
  %22 = sext i8 %21 to i32
  %23 = icmp eq i32 %22, 43
  br i1 %23, label %24, label %27

24:                                               ; preds = %19
  %25 = load ptr, ptr %8, align 8, !tbaa !24
  %26 = getelementptr inbounds nuw i8, ptr %25, i32 1
  store ptr %26, ptr %8, align 8, !tbaa !24
  br label %27

27:                                               ; preds = %24, %19, %15
  %28 = load ptr, ptr %8, align 8, !tbaa !24
  %29 = load i8, ptr %28, align 1, !tbaa !22
  %30 = sext i8 %29 to i32
  %31 = icmp ne i32 %30, 92
  br i1 %31, label %32, label %33

32:                                               ; preds = %27
  br label %68

33:                                               ; preds = %27
  %34 = load ptr, ptr %8, align 8, !tbaa !24
  %35 = getelementptr inbounds i8, ptr %34, i64 1
  %36 = load i8, ptr %35, align 1, !tbaa !22
  %37 = sext i8 %36 to i32
  %38 = icmp ne i32 %37, 120
  br i1 %38, label %48, label %39

39:                                               ; preds = %33
  %40 = load ptr, ptr %8, align 8, !tbaa !24
  %41 = getelementptr inbounds i8, ptr %40, i64 2
  %42 = call i64 @strtoul(ptr noundef %41, ptr noundef %9, i32 noundef 16) #12
  %43 = trunc i64 %42 to i8
  store i8 %43, ptr %10, align 1, !tbaa !22
  %44 = load ptr, ptr %9, align 8, !tbaa !24
  %45 = load ptr, ptr %8, align 8, !tbaa !24
  %46 = getelementptr inbounds i8, ptr %45, i64 4
  %47 = icmp ne ptr %44, %46
  br i1 %47, label %48, label %52

48:                                               ; preds = %39, %33
  %49 = load ptr, ptr @stderr, align 8, !tbaa !10
  %50 = load ptr, ptr %6, align 8, !tbaa !24
  %51 = call i32 (ptr, ptr, ...) @fprintf(ptr noundef %49, ptr noundef @.str.5, ptr noundef %50) #12
  store i8 -1, ptr %4, align 1
  store i32 1, ptr %12, align 4
  br label %72

52:                                               ; preds = %39
  %53 = load i8, ptr %11, align 1, !tbaa !22
  %54 = sext i8 %53 to i32
  %55 = icmp eq i32 %54, 31
  br i1 %55, label %56, label %60

56:                                               ; preds = %52
  %57 = load ptr, ptr @stderr, align 8, !tbaa !10
  %58 = load ptr, ptr %6, align 8, !tbaa !24
  %59 = call i32 (ptr, ptr, ...) @fprintf(ptr noundef %57, ptr noundef @.str.6, ptr noundef %58) #12
  store i8 -1, ptr %4, align 1
  store i32 1, ptr %12, align 4
  br label %72

60:                                               ; preds = %52
  %61 = load i8, ptr %10, align 1, !tbaa !22
  %62 = load ptr, ptr %5, align 8, !tbaa !24
  %63 = load i8, ptr %11, align 1, !tbaa !22
  %64 = add i8 %63, 1
  store i8 %64, ptr %11, align 1, !tbaa !22
  %65 = sext i8 %63 to i64
  %66 = getelementptr inbounds i8, ptr %62, i64 %65
  store i8 %61, ptr %66, align 1, !tbaa !22
  %67 = load ptr, ptr %9, align 8, !tbaa !24
  store ptr %67, ptr %8, align 8, !tbaa !24
  br label %15, !llvm.loop !74

68:                                               ; preds = %32
  %69 = load ptr, ptr %8, align 8, !tbaa !24
  %70 = load ptr, ptr %7, align 8, !tbaa !71
  store ptr %69, ptr %70, align 8, !tbaa !24
  %71 = load i8, ptr %11, align 1, !tbaa !22
  store i8 %71, ptr %4, align 1
  store i32 1, ptr %12, align 4
  br label %72

72:                                               ; preds = %68, %56, %48
  call void @llvm.lifetime.end.p0(i64 1, ptr %11) #12
  call void @llvm.lifetime.end.p0(i64 1, ptr %10) #12
  call void @llvm.lifetime.end.p0(i64 8, ptr %9) #12
  call void @llvm.lifetime.end.p0(i64 8, ptr %8) #12
  %73 = load i8, ptr %4, align 1
  ret i8 %73
}