; Function Attrs: mustprogress nofree nounwind uwtable
define signext i8 @ucm_parseBytes(ptr noundef writeonly captures(none) %0, ptr noundef %1, ptr noundef captures(none) %2) local_unnamed_addr #0 {
  %4 = alloca ptr, align 8
  %5 = load ptr, ptr %2, align 8, !tbaa !64
  call void @llvm.lifetime.start.p0(i64 8, ptr nonnull %4) #16
  br label %6

6:                                                ; preds = %29, %3
  %indvars.iv = phi i64 [ %indvars.iv.next, %29 ], [ 0, %3 ]
  %.018 = phi ptr [ %19, %29 ], [ %5, %3 ]
  %.not30 = icmp eq i64 %indvars.iv, 0
  br i1 %.not30, label %10, label %7

7:                                                ; preds = %6
  %8 = load i8, ptr %.018, align 1, !tbaa !17
  %9 = icmp eq i8 %8, 43
  %spec.select.idx = zext i1 %9 to i64
  %spec.select = getelementptr inbounds nuw i8, ptr %.018, i64 %spec.select.idx
  br label %10

10:                                               ; preds = %7, %6
  %.1 = phi ptr [ %.018, %6 ], [ %spec.select, %7 ]
  %11 = load i8, ptr %.1, align 1, !tbaa !17
  %.not = icmp eq i8 %11, 92
  br i1 %.not, label %12, label %31

12:                                               ; preds = %10
  %13 = getelementptr inbounds nuw i8, ptr %.1, i64 1
  %14 = load i8, ptr %13, align 1, !tbaa !17
  %.not19 = icmp eq i8 %14, 120
  br i1 %.not19, label %15, label %21

15:                                               ; preds = %12
  %16 = getelementptr inbounds nuw i8, ptr %.1, i64 2
  %17 = call i64 @strtoul(ptr noundef nonnull %16, ptr noundef nonnull %4, i32 noundef 16) #16
  %18 = trunc i64 %17 to i8
  %19 = load ptr, ptr %4, align 8, !tbaa !64
  %20 = getelementptr inbounds nuw i8, ptr %.1, i64 4
  %.not20 = icmp eq ptr %19, %20
  br i1 %.not20, label %24, label %21

21:                                               ; preds = %15, %12
  %22 = load ptr, ptr @stderr, align 8, !tbaa !32
  %23 = tail call i32 (ptr, ptr, ...) @fprintf(ptr noundef %22, ptr noundef nonnull @.str.5, ptr noundef %1) #20
  br label %33

24:                                               ; preds = %15
  %25 = icmp eq i64 %indvars.iv, 31
  br i1 %25, label %26, label %29

26:                                               ; preds = %24
  %27 = load ptr, ptr @stderr, align 8, !tbaa !32
  %28 = tail call i32 (ptr, ptr, ...) @fprintf(ptr noundef %27, ptr noundef nonnull @.str.6, ptr noundef %1) #20
  br label %33

29:                                               ; preds = %24
  %indvars.iv.next = add nuw nsw i64 %indvars.iv, 1
  %30 = getelementptr inbounds nuw i8, ptr %0, i64 %indvars.iv
  store i8 %18, ptr %30, align 1, !tbaa !17
  br label %6, !llvm.loop !65

31:                                               ; preds = %10
  %32 = trunc nuw nsw i64 %indvars.iv to i8
  store ptr %.1, ptr %2, align 8, !tbaa !64
  br label %33

33:                                               ; preds = %31, %26, %21
  %.017 = phi i8 [ %32, %31 ], [ -1, %21 ], [ -1, %26 ]
  call void @llvm.lifetime.end.p0(i64 8, ptr nonnull %4) #16
  ret i8 %.017
}